Certificate:
    Data:
        Version: 3 (0x2)
        Serial Number:
            ae:09:a6:3d:85:0e:8f:a6
        Signature Algorithm: sha1WithRSAEncryption
        Issuer: C=IN, ST=Karnataka, O=awx, OU=support, CN=awx13/emailAddress=asdf@asdf.com
        Validity
            Not Before: Sep 12 09:32:10 2013 GMT
            Not After : Sep 11 09:32:10 2016 GMT
        Subject: C=IN, ST=Karnataka, O=awx, OU=support, CN=awx13/emailAddress=asdf@asdf.com
        Subject Public Key Info:
            Public Key Algorithm: rsaEncryption
                Public-Key: (2048 bit)
                Modulus:
                    00:c4:84:6e:4d:ee:21:fb:91:35:cc:a0:01:8f:03:
                    d6:3b:87:fa:1a:3e:5a:5a:53:81:6a:17:ce:75:09:
                    3c:87:64:cf:dc:76:c3:36:33:f8:2b:23:1b:3e:4d:
                    50:b0:24:69:8c:76:70:3e:f0:2d:32:22:3e:7b:43:
                    5f:46:33:61:cf:e4:b9:7b:c4:31:68:d2:d9:93:42:
                    1d:f0:ed:2a:04:69:f0:36:0d:ed:44:7d:7d:49:90:
                    07:b7:c3:26:ba:1e:2b:7f:9b:bd:06:44:e7:ab:fb:
                    30:20:3b:f6:e0:c8:46:11:c6:c8:52:2a:12:9a:cd:
                    57:c1:82:11:81:49:d2:de:e4:7e:3f:fb:2e:ac:2c:
                    95:dc:48:03:eb:a3:5f:4f:66:0f:3e:25:b6:5d:01:
                    7a:a4:6c:02:39:81:1d:aa:0a:a7:88:91:92:5d:1c:
                    13:ef:86:e3:5a:a6:10:d5:9a:9b:85:24:18:01:a7:
                    ba:17:67:9c:55:e0:5f:4c:f0:ec:ea:ef:59:2e:c1:
                    a0:58:c5:08:2b:61:28:68:ca:08:cc:27:2a:3d:38:
                    49:d2:f6:09:25:1b:cc:b1:1f:e3:de:d4:75:de:e4:
                    ca:a0:05:67:17:a3:86:c1:57:43:f6:62:1d:d9:15:
                    ba:21:bd:7b:d5:0a:e9:bc:2c:1c:37:c9:9b:a2:41:
                    59:59
                Exponent: 65537 (0x10001)
        X509v3 extensions:
            X509v3 Subject Key Identifier: 
                D2:45:66:11:98:20:13:95:45:1E:4B:6E:0A:52:BF:41:16:BE:1D:9A
            X509v3 Authority Key Identifier: 
                keyid:D2:45:66:11:98:20:13:95:45:1E:4B:6E:0A:52:BF:41:16:BE:1D:9A

            X509v3 Basic Constraints: 
                CA:TRUE
    Signature Algorithm: sha1WithRSAEncryption
        0d:cb:f6:8d:e5:97:b2:4a:d5:78:a8:e5:70:09:e8:85:f5:74:
        a4:97:2f:38:26:29:ef:86:e3:55:b1:e9:00:19:ea:39:04:af:
        ee:ea:5b:fa:35:f5:7f:3c:d2:96:28:c0:ea:a7:0e:95:56:aa:
        49:cb:1d:bb:43:cd:60:45:64:62:82:c1:1c:86:48:67:87:cd:
        f2:0c:11:e2:a5:a0:75:a7:49:d1:43:4b:2f:7a:9f:3b:59:c7:
        85:c2:3d:90:92:86:d6:1b:e0:1e:a5:79:de:bb:78:a2:0c:4b:
        c8:db:66:ff:b5:77:53:e6:3a:5c:98:0a:d6:3d:a7:05:f8:a4:
        da:87:6c:cf:0c:05:f1:09:be:69:93:dc:5d:85:39:f1:2d:d9:
        19:22:ea:64:9b:21:48:05:bb:be:b8:ec:34:cb:56:37:c3:b5:
        35:67:bc:8d:fb:67:0c:5a:ca:ad:2c:aa:26:a2:79:cc:c8:ef:
        2c:b9:40:6b:a8:1f:84:f4:c5:b4:71:ba:8f:b1:e2:36:b9:d2:
        40:bf:32:fb:f0:44:b4:42:6f:23:25:d7:1f:e2:46:45:c7:e5:
        f4:5a:9a:af:11:d7:32:f3:22:7f:15:9d:80:86:23:41:13:2b:
        2c:df:96:de:d3:13:e0:27:cd:a7:c7:4f:09:50:c4:71:1a:ed:
        7c:7e:ce:2c
-----BEGIN CERTIFICATE-----
MIIDsTCCApmgAwIBAgIJAK4Jpj2FDo+mMA0GCSqGSIb3DQEBBQUAMG8xCzAJBgNV
BAYTAklOMRIwEAYDVQQIDAlLYXJuYXRha2ExDDAKBgNVBAoMA2F3eDEQMA4GA1UE
CwwHc3VwcG9ydDEOMAwGA1UEAwwFYXd4MTMxHDAaBgkqhkiG9w0BCQEWDWFzZGZA
YXNkZi5jb20wHhcNMTMwOTEyMDkzMjEwWhcNMTYwOTExMDkzMjEwWjBvMQswCQYD
VQQGEwJJTjESMBAGA1UECAwJS2FybmF0YWthMQwwCgYDVQQKDANhd3gxEDAOBgNV
BAsMB3N1cHBvcnQxDjAMBgNVBAMMBWF3eDEzMRwwGgYJKoZIhvcNAQkBFg1hc2Rm
QGFzZGYuY29tMIIBIjANBgkqhkiG9w0BAQEFAAOCAQ8AMIIBCgKCAQEAxIRuTe4h
+5E1zKABjwPWO4f6Gj5aWlOBahfOdQk8h2TP3HbDNjP4KyMbPk1QsCRpjHZwPvAt
MiI+e0NfRjNhz+S5e8QxaNLZk0Id8O0qBGnwNg3tRH19SZAHt8Mmuh4rf5u9BkTn
q/swIDv24MhGEcbIUioSms1XwYIRgUnS3uR+P/surCyV3EgD66NfT2YPPiW2XQF6
pGwCOYEdqgqniJGSXRwT74bjWqYQ1ZqbhSQYAae6F2ecVeBfTPDs6u9ZLsGgWMUI
K2EoaMoIzCcqPThJ0vYJJRvMsR/j3tR13uTKoAVnF6OGwVdD9mId2RW6Ib171Qrp
vCwcN8mbokFZWQIDAQABo1AwTjAdBgNVHQ4EFgQU0kVmEZggE5VFHktuClK/QRa+
HZowHwYDVR0jBBgwFoAU0kVmEZggE5VFHktuClK/QRa+HZowDAYDVR0TBAUwAwEB
/zANBgkqhkiG9w0BAQUFAAOCAQEADcv2jeWXskrVeKjlcAnohfV0pJcvOCYp74bj
VbHpABnqOQSv7upb+jX1fzzSlijA6qcOlVaqScsdu0PNYEVkYoLBHIZIZ4fN8gwR
4qWgdadJ0UNLL3qfO1nHhcI9kJKG1hvgHqV53rt4ogxLyNtm/7V3U+Y6XJgK1j2n
Bfik2odszwwF8Qm+aZPcXYU58S3ZGSLqZJshSAW7vrjsNMtWN8O1NWe8jftnDFrK
rSyqJqJ5zMjvLLlAa6gfhPTFtHG6j7HiNrnSQL8y+/BEtEJvIyXXH+JGRcfl9Fqa
rxHXMvMifxWdgIYjQRMrLN+W3tMT4CfNp8dPCVDEcRrtfH7OLA==
-----END CERTIFICATE-----
