Certificate:
    Data:
        Version: 3 (0x2)
        Serial Number:
            ae:09:a6:3d:85:0e:8f:a7
        Signature Algorithm: sha1WithRSAEncryption
        Issuer: C=IN, ST=Karnataka, O=awx, OU=support, CN=awx13/emailAddress=asdf@asdf.com
        Validity
            Not Before: Sep 12 09:36:29 2013 GMT
            Not After : Sep 12 09:36:29 2014 GMT
        Subject: C=IN, ST=Karnataka, L=bangalore, O=ansibleworks, OU=support, CN=awx12/emailAddress=asdf@asdf.com
        Subject Public Key Info:
            Public Key Algorithm: rsaEncryption
                Public-Key: (1024 bit)
                Modulus:
                    00:b8:9c:a1:b0:6a:2e:4d:75:d7:ba:51:cb:46:07:
                    b9:60:6a:33:79:26:6e:b0:44:15:ba:6a:36:fb:eb:
                    b2:1a:9a:0c:4e:cb:1b:1d:52:f5:09:c1:c9:f6:c5:
                    3b:6b:a8:df:63:bb:4f:89:f0:31:80:87:5f:e8:97:
                    8d:62:b7:9e:8c:c9:e8:32:ec:c4:d7:08:7e:8b:48:
                    be:6d:35:f9:c5:cd:90:34:61:58:ab:17:44:57:bc:
                    a9:87:ea:44:46:1c:d7:64:89:91:25:9e:4f:ae:89:
                    6a:0b:9a:0f:09:65:f7:49:77:b6:15:dc:eb:28:b0:
                    0f:be:53:1d:bc:fd:2a:85:89
                Exponent: 65537 (0x10001)
        X509v3 extensions:
            X509v3 Basic Constraints: 
                CA:FALSE
            Netscape Comment: 
                OpenSSL Generated Certificate
            X509v3 Subject Key Identifier: 
                D5:96:DB:E8:95:02:20:AD:3F:01:18:84:FF:FC:FE:6A:85:E5:1C:CB
            X509v3 Authority Key Identifier: 
                keyid:D2:45:66:11:98:20:13:95:45:1E:4B:6E:0A:52:BF:41:16:BE:1D:9A

    Signature Algorithm: sha1WithRSAEncryption
        30:79:e3:da:b7:4b:75:72:41:b6:4f:d1:9a:dd:58:1c:d0:57:
        33:13:ad:48:e9:d0:fa:e8:fd:e2:6c:6d:b2:a9:82:cb:1d:5a:
        d8:1f:07:58:54:c2:14:f6:a8:15:d6:ad:29:56:b5:01:ee:72:
        cb:32:dd:94:ee:e5:a4:98:74:3b:4f:97:e9:22:8e:38:6d:0a:
        fb:77:7a:be:60:96:a7:c3:cc:6b:b3:7b:6a:fa:97:01:40:9d:
        3d:8e:3b:ec:b3:8c:e9:c3:6b:a4:51:25:7e:99:3a:a5:d8:94:
        29:7a:84:f8:73:2e:c4:6c:9a:ae:77:b3:84:e7:21:f6:66:66:
        58:21:10:bb:2d:a9:af:c1:0a:3c:ac:e8:26:8e:c1:33:4c:e7:
        d5:83:c1:3b:57:2c:8b:7a:96:b9:ed:ae:2e:d0:89:a1:a6:0e:
        e4:e9:cc:17:c1:7f:a1:a9:23:52:db:db:cd:a8:30:fd:c2:8b:
        f6:57:57:ff:e5:4a:2a:27:f4:f8:58:6d:bf:6d:89:05:14:7e:
        f3:0a:6d:7a:48:13:e7:d0:30:fa:c0:a8:35:02:5f:81:9a:19:
        16:cb:17:e6:cc:03:89:dc:64:7e:59:54:10:f7:85:97:8a:a4:
        22:1c:b9:53:27:d1:3c:fa:db:b3:dc:b5:17:2c:0a:39:ce:71:
        53:2b:5d:64
-----BEGIN CERTIFICATE-----
MIIDdjCCAl6gAwIBAgIJAK4Jpj2FDo+nMA0GCSqGSIb3DQEBBQUAMG8xCzAJBgNV
BAYTAklOMRIwEAYDVQQIDAlLYXJuYXRha2ExDDAKBgNVBAoMA2F3eDEQMA4GA1UE
CwwHc3VwcG9ydDEOMAwGA1UEAwwFYXd4MTMxHDAaBgkqhkiG9w0BCQEWDWFzZGZA
YXNkZi5jb20wHhcNMTMwOTEyMDkzNjI5WhcNMTQwOTEyMDkzNjI5WjCBjDELMAkG
A1UEBhMCSU4xEjAQBgNVBAgMCUthcm5hdGFrYTESMBAGA1UEBwwJYmFuZ2Fsb3Jl
MRUwEwYDVQQKDAxhbnNpYmxld29ya3MxEDAOBgNVBAsMB3N1cHBvcnQxDjAMBgNV
BAMMBWF3eDEyMRwwGgYJKoZIhvcNAQkBFg1hc2RmQGFzZGYuY29tMIGfMA0GCSqG
SIb3DQEBAQUAA4GNADCBiQKBgQC4nKGwai5Ndde6UctGB7lgajN5Jm6wRBW6ajb7
67IamgxOyxsdUvUJwcn2xTtrqN9ju0+J8DGAh1/ol41it56Myegy7MTXCH6LSL5t
NfnFzZA0YVirF0RXvKmH6kRGHNdkiZElnk+uiWoLmg8JZfdJd7YV3OsosA++Ux28
/SqFiQIDAQABo3sweTAJBgNVHRMEAjAAMCwGCWCGSAGG+EIBDQQfFh1PcGVuU1NM
IEdlbmVyYXRlZCBDZXJ0aWZpY2F0ZTAdBgNVHQ4EFgQU1Zbb6JUCIK0/ARiE//z+
aoXlHMswHwYDVR0jBBgwFoAU0kVmEZggE5VFHktuClK/QRa+HZowDQYJKoZIhvcN
AQEFBQADggEBADB549q3S3VyQbZP0ZrdWBzQVzMTrUjp0Pro/eJsbbKpgssdWtgf
B1hUwhT2qBXWrSlWtQHucssy3ZTu5aSYdDtPl+kijjhtCvt3er5glqfDzGuze2r6
lwFAnT2OO+yzjOnDa6RRJX6ZOqXYlCl6hPhzLsRsmq53s4TnIfZmZlghELstqa/B
Cjys6CaOwTNM59WDwTtXLIt6lrntri7QiaGmDuTpzBfBf6GpI1Lb282oMP3Ci/ZX
V//lSion9PhYbb9tiQUUfvMKbXpIE+fQMPrAqDUCX4GaGRbLF+bMA4ncZH5ZVBD3
hZeKpCIcuVMn0Tz627PctRcsCjnOcVMrXWQ=
-----END CERTIFICATE-----
